target datalayout = "e-m:e-p270:32:32-p271:32:32-p272:64:64-i64:64-i128:128-f80:128-n8:16:32:64-S128"
target triple = "x86_64-unknown-linux-gnu"

%struct.VFIODevice = type { %struct.anon, %struct.anon.0, %struct.anon.1, ptr, ptr, ptr, ptr, ptr, i32, i32, i8, i8, i8, i8, i32, ptr, i32, i32, i32, ptr, ptr, i32, i8, i8 }
%struct.anon = type { ptr, ptr }
%struct.anon.0 = type { ptr, ptr }
%struct.anon.1 = type { ptr, ptr }
%struct.VFIOMigration = type { ptr, ptr, %struct.Notifier, i32, i32, ptr, i64, i64, i64, i64, i8 }
%struct.Notifier = type { ptr, %struct.anon.2 }
%struct.anon.2 = type { ptr, ptr }
%struct.timeval = type { i64, i64 }

@trace_events_enabled_count = external global i32, align 4
@message_with_timestamp = external global i8, align 1
@qemu_loglevel = external global i32, align 4
@_TRACE_VFIO_SAVE_CLEANUP_DSTATE = external global i16, align 2
@.str.36 = private unnamed_addr constant [38 x i8] c"%d@%zu.%06zu:vfio_save_cleanup  (%s)\0A\00", align 1
@.str.37 = private unnamed_addr constant [25 x i8] c"vfio_save_cleanup  (%s)\0A\00", align 1

; Function Attrs: nounwind sspstrong uwtable
define internal zeroext i1 @qemu_loglevel_mask(i32 noundef %mask) #0 {
entry:
  %mask.addr = alloca i32, align 4
  store i32 %mask, ptr %mask.addr, align 4
  %0 = load i32, ptr @qemu_loglevel, align 4
  %1 = load i32, ptr %mask.addr, align 4
  %and = and i32 %0, %1
  %cmp = icmp ne i32 %and, 0
  ret i1 %cmp
}

; Function Attrs: nounwind sspstrong uwtable
define internal void @_nocheck__trace_vfio_save_cleanup(ptr noundef %name) #0 {
entry:
  %name.addr = alloca ptr, align 8
  %_now = alloca %struct.timeval, align 8
  store ptr %name, ptr %name.addr, align 8
  %0 = load i32, ptr @trace_events_enabled_count, align 4
  %tobool = icmp ne i32 %0, 0
  %lnot = xor i1 %tobool, true
  %lnot1 = xor i1 %lnot, true
  %lnot.ext = zext i1 %lnot1 to i32
  %conv = sext i32 %lnot.ext to i64
  %tobool2 = icmp ne i64 %conv, 0
  br i1 %tobool2, label %land.lhs.true, label %if.end11

land.lhs.true:                                    ; preds = %entry
  %1 = load i16, ptr @_TRACE_VFIO_SAVE_CLEANUP_DSTATE, align 2
  %conv3 = zext i16 %1 to i32
  %tobool4 = icmp ne i32 %conv3, 0
  br i1 %tobool4, label %land.lhs.true5, label %if.end11

land.lhs.true5:                                   ; preds = %land.lhs.true
  %call = call zeroext i1 @qemu_loglevel_mask(i32 noundef 32768)
  br i1 %call, label %if.then, label %if.end11

if.then:                                          ; preds = %land.lhs.true5
  %2 = load i8, ptr @message_with_timestamp, align 1
  %tobool7 = trunc i8 %2 to i1
  br i1 %tobool7, label %if.then8, label %if.else

if.then8:                                         ; preds = %if.then
  %call9 = call i32 @gettimeofday(ptr noundef %_now, ptr noundef null) #9
  %call10 = call i32 @qemu_get_thread_id()
  %tv_sec = getelementptr inbounds %struct.timeval, ptr %_now, i32 0, i32 0
  %3 = load i64, ptr %tv_sec, align 8
  %tv_usec = getelementptr inbounds %struct.timeval, ptr %_now, i32 0, i32 1
  %4 = load i64, ptr %tv_usec, align 8
  %5 = load ptr, ptr %name.addr, align 8
  call void (ptr, ...) @qemu_log(ptr noundef @.str.36, i32 noundef %call10, i64 noundef %3, i64 noundef %4, ptr noundef %5)
  br label %if.end

if.else:                                          ; preds = %if.then
  %6 = load ptr, ptr %name.addr, align 8
  call void (ptr, ...) @qemu_log(ptr noundef @.str.37, ptr noundef %6)
  br label %if.end

if.end:                                           ; preds = %if.else, %if.then8
  br label %if.end11

if.end11:                                         ; preds = %if.end, %land.lhs.true5, %land.lhs.true, %entry
  ret void
}

; Function Attrs: nounwind sspstrong uwtable
define internal void @trace_vfio_save_cleanup(ptr noundef %name) #0 {
entry:
  %name.addr = alloca ptr, align 8
  store ptr %name, ptr %name.addr, align 8
  %0 = load ptr, ptr %name.addr, align 8
  call void @_nocheck__trace_vfio_save_cleanup(ptr noundef %0)
  ret void
}

; Function Attrs: nounwind sspstrong uwtable
define internal void @vfio_migration_cleanup(ptr noundef %vbasedev) #0 {
entry:
  %vbasedev.addr = alloca ptr, align 8
  %migration = alloca ptr, align 8
  store ptr %vbasedev, ptr %vbasedev.addr, align 8
  %0 = load ptr, ptr %vbasedev.addr, align 8
  %migration1 = getelementptr inbounds %struct.VFIODevice, ptr %0, i32 0, i32 19
  %1 = load ptr, ptr %migration1, align 8
  store ptr %1, ptr %migration, align 8
  %2 = load ptr, ptr %migration, align 8
  %data_fd = getelementptr inbounds %struct.VFIOMigration, ptr %2, i32 0, i32 4
  %3 = load i32, ptr %data_fd, align 4
  %call = call i32 @close(i32 noundef %3)
  %4 = load ptr, ptr %migration, align 8
  %data_fd2 = getelementptr inbounds %struct.VFIOMigration, ptr %4, i32 0, i32 4
  store i32 -1, ptr %data_fd2, align 4
  ret void
}

; Function Attrs: nounwind sspstrong uwtable
define internal void @vfio_save_cleanup(ptr noundef %opaque) #0 {
entry:
  %opaque.addr = alloca ptr, align 8
  %vbasedev = alloca ptr, align 8
  %migration = alloca ptr, align 8
  store ptr %opaque, ptr %opaque.addr, align 8
  %0 = load ptr, ptr %opaque.addr, align 8
  store ptr %0, ptr %vbasedev, align 8
  %1 = load ptr, ptr %vbasedev, align 8
  %migration1 = getelementptr inbounds %struct.VFIODevice, ptr %1, i32 0, i32 19
  %2 = load ptr, ptr %migration1, align 8
  store ptr %2, ptr %migration, align 8
  %3 = load ptr, ptr %migration, align 8
  %device_state = getelementptr inbounds %struct.VFIOMigration, ptr %3, i32 0, i32 3
  %4 = load i32, ptr %device_state, align 8
  %cmp = icmp eq i32 %4, 3
  br i1 %cmp, label %if.then, label %if.end

if.then:                                          ; preds = %entry
  %5 = load ptr, ptr %vbasedev, align 8
  %call = call i32 @vfio_migration_set_state(ptr noundef %5, i32 noundef 1, i32 noundef 0)
  br label %if.end

if.end:                                           ; preds = %if.then, %entry
  %6 = load ptr, ptr %migration, align 8
  %data_buffer = getelementptr inbounds %struct.VFIOMigration, ptr %6, i32 0, i32 5
  %7 = load ptr, ptr %data_buffer, align 8
  call void @g_free(ptr noundef %7)
  %8 = load ptr, ptr %migration, align 8
  %data_buffer2 = getelementptr inbounds %struct.VFIOMigration, ptr %8, i32 0, i32 5
  store ptr null, ptr %data_buffer2, align 8
  %9 = load ptr, ptr %migration, align 8
  %precopy_init_size = getelementptr inbounds %struct.VFIOMigration, ptr %9, i32 0, i32 8
  store i64 0, ptr %precopy_init_size, align 8
  %10 = load ptr, ptr %migration, align 8
  %precopy_dirty_size = getelementptr inbounds %struct.VFIOMigration, ptr %10, i32 0, i32 9
  store i64 0, ptr %precopy_dirty_size, align 8
  %11 = load ptr, ptr %migration, align 8
  %initial_data_sent = getelementptr inbounds %struct.VFIOMigration, ptr %11, i32 0, i32 10
  store i8 0, ptr %initial_data_sent, align 8
  %12 = load ptr, ptr %vbasedev, align 8
  call void @vfio_migration_cleanup(ptr noundef %12)
  %13 = load ptr, ptr %vbasedev, align 8
  %name = getelementptr inbounds %struct.VFIODevice, ptr %13, i32 0, i32 6
  %14 = load ptr, ptr %name, align 8
  call void @trace_vfio_save_cleanup(ptr noundef %14)
  ret void
}