; Function Attrs: nounwind sspstrong uwtable
define internal void @vfio_save_cleanup(ptr noundef readonly captures(none) %opaque) #2 {
entry:
  %_now.i.i = alloca %struct.timeval, align 8
  %migration1 = getelementptr inbounds nuw i8, ptr %opaque, i64 128
  %0 = load ptr, ptr %migration1, align 8
  %device_state = getelementptr inbounds nuw i8, ptr %0, i64 40
  %1 = load i32, ptr %device_state, align 8
  %cmp = icmp eq i32 %1, 3
  br i1 %cmp, label %if.then, label %if.end

if.then:                                          ; preds = %entry
  %call = tail call fastcc i32 @vfio_migration_set_state(ptr noundef nonnull %opaque, i32 noundef 1, i32 noundef 0)
  br label %if.end

if.end:                                           ; preds = %if.then, %entry
  %data_buffer = getelementptr inbounds nuw i8, ptr %0, i64 48
  %2 = load ptr, ptr %data_buffer, align 8
  tail call void @g_free(ptr noundef %2) #16
  store ptr null, ptr %data_buffer, align 8
  %precopy_init_size = getelementptr inbounds nuw i8, ptr %0, i64 72
  tail call void @llvm.memset.p0.i64(ptr noundef nonnull align 8 dereferenceable(17) %precopy_init_size, i8 0, i64 17, i1 false)
  %opaque.val = load ptr, ptr %migration1, align 8
  %data_fd.i = getelementptr inbounds nuw i8, ptr %opaque.val, i64 44
  %3 = load i32, ptr %data_fd.i, align 4
  %call.i = tail call i32 @close(i32 noundef %3) #16
  store i32 -1, ptr %data_fd.i, align 4
  %name = getelementptr inbounds nuw i8, ptr %opaque, i64 72
  %4 = load ptr, ptr %name, align 8
  call void @llvm.lifetime.start.p0(i64 16, ptr nonnull %_now.i.i)
  %5 = load i32, ptr @trace_events_enabled_count, align 4
  %tobool.i.i = icmp ne i32 %5, 0
  %6 = load i16, ptr @_TRACE_VFIO_SAVE_CLEANUP_DSTATE, align 2
  %tobool4.i.i = icmp ne i16 %6, 0
  %or.cond.i.i = select i1 %tobool.i.i, i1 %tobool4.i.i, i1 false
  br i1 %or.cond.i.i, label %land.lhs.true5.i.i, label %trace_vfio_save_cleanup.exit

land.lhs.true5.i.i:                               ; preds = %if.end
  %7 = load i32, ptr @qemu_loglevel, align 4
  %and.i.i.i = and i32 %7, 32768
  %cmp.i.not.i.i = icmp eq i32 %and.i.i.i, 0
  br i1 %cmp.i.not.i.i, label %trace_vfio_save_cleanup.exit, label %if.then.i.i

if.then.i.i:                                      ; preds = %land.lhs.true5.i.i
  %8 = load i8, ptr @message_with_timestamp, align 1
  %tobool7.i.i = trunc i8 %8 to i1
  br i1 %tobool7.i.i, label %if.then8.i.i, label %if.else.i.i

if.then8.i.i:                                     ; preds = %if.then.i.i
  %call9.i.i = call i32 @gettimeofday(ptr noundef nonnull %_now.i.i, ptr noundef null) #16
  %call10.i.i = tail call i32 @qemu_get_thread_id() #16
  %9 = load i64, ptr %_now.i.i, align 8
  %tv_usec.i.i = getelementptr inbounds nuw i8, ptr %_now.i.i, i64 8
  %10 = load i64, ptr %tv_usec.i.i, align 8
  tail call void (ptr, ...) @qemu_log(ptr noundef nonnull @.str.36, i32 noundef %call10.i.i, i64 noundef %9, i64 noundef %10, ptr noundef %4) #16
  br label %trace_vfio_save_cleanup.exit

if.else.i.i:                                      ; preds = %if.then.i.i
  tail call void (ptr, ...) @qemu_log(ptr noundef nonnull @.str.37, ptr noundef %4) #16
  br label %trace_vfio_save_cleanup.exit

trace_vfio_save_cleanup.exit:                     ; preds = %if.end, %land.lhs.true5.i.i, %if.then8.i.i, %if.else.i.i
  call void @llvm.lifetime.end.p0(i64 16, ptr nonnull %_now.i.i)
  ret void
}